target datalayout = "e-m:e-p270:32:32-p271:32:32-p272:64:64-i64:64-i128:128-f80:128-n8:16:32:64-S128"
target triple = "x86_64-pc-linux-gnu"

%struct.jpeg_decompress_struct = type { ptr, ptr, ptr, ptr, i32, i32, ptr, i32, i32, i32, i32, i32, i32, i32, double, i32, i32, i32, i32, i32, i32, i32, i32, i32, i32, i32, i32, i32, i32, i32, i32, i32, i32, ptr, i32, i32, i32, i32, i32, ptr, [4 x ptr], [4 x ptr], [4 x ptr], i32, ptr, i32, i32, [16 x i8], [16 x i8], [16 x i8], i32, i32, i8, i8, i8, i16, i16, i32, i8, i32, ptr, i32, i32, i32, i32, ptr, i32, [4 x ptr], i32, i32, i32, [10 x i32], i32, i32, i32, i32, i32, ptr, ptr, ptr, ptr, ptr, ptr, ptr, ptr, ptr, ptr, ptr }
%struct.jpeg_component_info = type { i32, i32, i32, i32, i32, i32, i32, i32, i32, i32, i32, i32, i32, i32, i32, i32, i32, i32, i32, ptr, ptr }

; Function Attrs: nounwind uwtable
define internal void @h1v2_fancy_upsample(ptr noundef %0, ptr noundef %1, ptr noundef %2, ptr noundef %3) #0 {
  %5 = alloca ptr, align 8
  %6 = alloca ptr, align 8
  %7 = alloca ptr, align 8
  %8 = alloca ptr, align 8
  %9 = alloca ptr, align 8
  %10 = alloca ptr, align 8
  %11 = alloca ptr, align 8
  %12 = alloca ptr, align 8
  %13 = alloca i32, align 4
  %14 = alloca i32, align 4
  %15 = alloca i32, align 4
  %16 = alloca i32, align 4
  %17 = alloca i32, align 4
  %18 = alloca i32, align 4
  store ptr %0, ptr %5, align 8, !tbaa !3
  store ptr %1, ptr %6, align 8, !tbaa !45
  store ptr %2, ptr %7, align 8, !tbaa !68
  store ptr %3, ptr %8, align 8, !tbaa !74
  call void @llvm.lifetime.start.p0(i64 8, ptr %9) #3
  %19 = load ptr, ptr %8, align 8, !tbaa !74
  %20 = load ptr, ptr %19, align 8, !tbaa !68
  store ptr %20, ptr %9, align 8, !tbaa !68
  call void @llvm.lifetime.start.p0(i64 8, ptr %10) #3
  call void @llvm.lifetime.start.p0(i64 8, ptr %11) #3
  call void @llvm.lifetime.start.p0(i64 8, ptr %12) #3
  call void @llvm.lifetime.start.p0(i64 4, ptr %13) #3
  call void @llvm.lifetime.start.p0(i64 4, ptr %14) #3
  call void @llvm.lifetime.start.p0(i64 4, ptr %15) #3
  call void @llvm.lifetime.start.p0(i64 4, ptr %16) #3
  call void @llvm.lifetime.start.p0(i64 4, ptr %17) #3
  call void @llvm.lifetime.start.p0(i64 4, ptr %18) #3
  store i32 0, ptr %17, align 4, !tbaa !55
  store i32 0, ptr %16, align 4, !tbaa !55
  br label %21

21:                                               ; preds = %91, %4
  %22 = load i32, ptr %17, align 4, !tbaa !55
  %23 = load ptr, ptr %5, align 8, !tbaa !3
  %24 = getelementptr inbounds nuw %struct.jpeg_decompress_struct, ptr %23, i32 0, i32 62
  %25 = load i32, ptr %24, align 4, !tbaa !63
  %26 = icmp slt i32 %22, %25
  br i1 %26, label %27, label %94

27:                                               ; preds = %21
  store i32 0, ptr %18, align 4, !tbaa !55
  br label %28

28:                                               ; preds = %88, %27
  %29 = load i32, ptr %18, align 4, !tbaa !55
  %30 = icmp slt i32 %29, 2
  br i1 %30, label %31, label %91

31:                                               ; preds = %28
  %32 = load ptr, ptr %7, align 8, !tbaa !68
  %33 = load i32, ptr %16, align 4, !tbaa !55
  %34 = sext i32 %33 to i64
  %35 = getelementptr inbounds ptr, ptr %32, i64 %34
  %36 = load ptr, ptr %35, align 8, !tbaa !81
  store ptr %36, ptr %10, align 8, !tbaa !81
  %37 = load i32, ptr %18, align 4, !tbaa !55
  %38 = icmp eq i32 %37, 0
  br i1 %38, label %39, label %46

39:                                               ; preds = %31
  %40 = load ptr, ptr %7, align 8, !tbaa !68
  %41 = load i32, ptr %16, align 4, !tbaa !55
  %42 = sub nsw i32 %41, 1
  %43 = sext i32 %42 to i64
  %44 = getelementptr inbounds ptr, ptr %40, i64 %43
  %45 = load ptr, ptr %44, align 8, !tbaa !81
  store ptr %45, ptr %11, align 8, !tbaa !81
  store i32 1, ptr %14, align 4, !tbaa !55
  br label %53

46:                                               ; preds = %31
  %47 = load ptr, ptr %7, align 8, !tbaa !68
  %48 = load i32, ptr %16, align 4, !tbaa !55
  %49 = add nsw i32 %48, 1
  %50 = sext i32 %49 to i64
  %51 = getelementptr inbounds ptr, ptr %47, i64 %50
  %52 = load ptr, ptr %51, align 8, !tbaa !81
  store ptr %52, ptr %11, align 8, !tbaa !81
  store i32 2, ptr %14, align 4, !tbaa !55
  br label %53

53:                                               ; preds = %46, %39
  %54 = load ptr, ptr %9, align 8, !tbaa !68
  %55 = load i32, ptr %17, align 4, !tbaa !55
  %56 = add nsw i32 %55, 1
  store i32 %56, ptr %17, align 4, !tbaa !55
  %57 = sext i32 %55 to i64
  %58 = getelementptr inbounds ptr, ptr %54, i64 %57
  %59 = load ptr, ptr %58, align 8, !tbaa !81
  store ptr %59, ptr %12, align 8, !tbaa !81
  store i32 0, ptr %15, align 4, !tbaa !55
  br label %60

60:                                               ; preds = %84, %53
  %61 = load i32, ptr %15, align 4, !tbaa !55
  %62 = load ptr, ptr %6, align 8, !tbaa !45
  %63 = getelementptr inbounds nuw %struct.jpeg_component_info, ptr %62, i32 0, i32 10
  %64 = load i32, ptr %63, align 8, !tbaa !65
  %65 = icmp ult i32 %61, %64
  br i1 %65, label %66, label %87

66:                                               ; preds = %60
  %67 = load ptr, ptr %10, align 8, !tbaa !81
  %68 = getelementptr inbounds nuw i8, ptr %67, i32 1
  store ptr %68, ptr %10, align 8, !tbaa !81
  %69 = load i8, ptr %67, align 1, !tbaa !39
  %70 = zext i8 %69 to i32
  %71 = mul nsw i32 %70, 3
  %72 = load ptr, ptr %11, align 8, !tbaa !81
  %73 = getelementptr inbounds nuw i8, ptr %72, i32 1
  store ptr %73, ptr %11, align 8, !tbaa !81
  %74 = load i8, ptr %72, align 1, !tbaa !39
  %75 = zext i8 %74 to i32
  %76 = add nsw i32 %71, %75
  store i32 %76, ptr %13, align 4, !tbaa !55
  %77 = load i32, ptr %13, align 4, !tbaa !55
  %78 = load i32, ptr %14, align 4, !tbaa !55
  %79 = add nsw i32 %77, %78
  %80 = ashr i32 %79, 2
  %81 = trunc i32 %80 to i8
  %82 = load ptr, ptr %12, align 8, !tbaa !81
  %83 = getelementptr inbounds nuw i8, ptr %82, i32 1
  store ptr %83, ptr %12, align 8, !tbaa !81
  store i8 %81, ptr %82, align 1, !tbaa !39
  br label %84

84:                                               ; preds = %66
  %85 = load i32, ptr %15, align 4, !tbaa !55
  %86 = add i32 %85, 1
  store i32 %86, ptr %15, align 4, !tbaa !55
  br label %60, !llvm.loop !86

87:                                               ; preds = %60
  br label %88

88:                                               ; preds = %87
  %89 = load i32, ptr %18, align 4, !tbaa !55
  %90 = add nsw i32 %89, 1
  store i32 %90, ptr %18, align 4, !tbaa !55
  br label %28, !llvm.loop !87

91:                                               ; preds = %28
  %92 = load i32, ptr %16, align 4, !tbaa !55
  %93 = add nsw i32 %92, 1
  store i32 %93, ptr %16, align 4, !tbaa !55
  br label %21, !llvm.loop !88

94:                                               ; preds = %21
  call void @llvm.lifetime.end.p0(i64 4, ptr %18) #3
  call void @llvm.lifetime.end.p0(i64 4, ptr %17) #3
  call void @llvm.lifetime.end.p0(i64 4, ptr %16) #3
  call void @llvm.lifetime.end.p0(i64 4, ptr %15) #3
  call void @llvm.lifetime.end.p0(i64 4, ptr %14) #3
  call void @llvm.lifetime.end.p0(i64 4, ptr %13) #3
  call void @llvm.lifetime.end.p0(i64 8, ptr %12) #3
  call void @llvm.lifetime.end.p0(i64 8, ptr %11) #3
  call void @llvm.lifetime.end.p0(i64 8, ptr %10) #3
  call void @llvm.lifetime.end.p0(i64 8, ptr %9) #3
  ret void
}